(lp0
(dp1
S'peer'
p2
S'CoryHall_5DPC_elt-E_5F_Hvac_Fan.dat'
p3
sS'start'
p4
I1294585213
sS'end'
p5
I1295190013
sS'dev'
p6
cnumpy.core.multiarray
scalar
p7
(cnumpy
dtype
p8
(S'f8'
p9
I0
I1
tp10
Rp11
(I3
S'<'
p12
NNNI-1
I-1
I0
tp13
bS'\xcf\x11\x84\x1d\xd6&"@'
p14
tp15
Rp16
sS'label'
p17
S'CoryHall_5DPC_elt-F_5F_Light_.dat'
p18
sa(dp19
g2
g3
sg4
I1294585213
sg5
I1295190013
sg6
g7
(g11
S'\xfd\xa1\xc6<$I(@'
p20
tp21
Rp22
sg17
S'CoryHall_5DPC_elt-C_4F_Microlab_Cooler.dat'
p23
sa(dp24
g2
S'CoryHall_5DPC_elt-D_5F_Hvac_Fan.dat'
p25
sg4
I1304607613
sg5
I1305212413
sg6
g7
(g11
S'(\xd6H\xb7P\xa8^@'
p26
tp27
Rp28
sg17
S'CoryHall_5DPC_elt-A_5F_Hvac_.dat'
p29
sa(dp30
g2
g23
sg4
I1305471613
sg5
I1305817213
sg6
g7
(g11
S'\x0e\xd8Uz\xa6\xc6&@'
p31
tp32
Rp33
sg17
g18
sa(dp34
g2
g29
sg4
I1305903613
sg5
I1305990013
sg6
g7
(g11
S'S\xc6\x14\xe34:\x16@'
p35
tp36
Rp37
sg17
g18
sa(dp38
g2
g25
sg4
I1305817213
sg5
I1307026813
sg6
g7
(g11
S'\x01\x0c\xd0\xaa\xa9(3@'
p39
tp40
Rp41
sg17
g18
sa(dp42
g2
g3
sg4
I1307545213
sg5
I1307631613
sg6
g7
(g11
S'FU\xa9 \x84m @'
p43
tp44
Rp45
sg17
g25
sa.